; Function Attrs: mustprogress uwtable
define hidden noundef ptr @_ZN7datalog19sparse_table_plugin8mk_cloneERKNS_12sparse_tableE(ptr noundef nonnull align 8 dereferenceable(56) %this, ptr noundef nonnull align 8 dereferenceable(184) %t) local_unnamed_addr #3 align 2 {
entry:
  %m_signature.i = getelementptr inbounds i8, ptr %t, i64 16
  %vtable = load ptr, ptr %this, align 8
  %vfn = getelementptr inbounds i8, ptr %vtable, i64 40
  %0 = load ptr, ptr %vfn, align 8
  %call2 = tail call noundef ptr %0(ptr noundef nonnull align 8 dereferenceable(56) %this, ptr noundef nonnull align 8 dereferenceable(12) %m_signature.i)
  %1 = icmp eq ptr %call2, null
  br i1 %1, label %_ZN7datalog19sparse_table_plugin3getEPNS_10table_baseE.exit, label %dynamic_cast.notnull.i

dynamic_cast.notnull.i:                           ; preds = %entry
  %2 = tail call ptr @__dynamic_cast(ptr nonnull %call2, ptr nonnull @_ZTIN7datalog10table_baseE, ptr nonnull @_ZTIN7datalog12sparse_tableE, i64 0) #25
  br label %_ZN7datalog19sparse_table_plugin3getEPNS_10table_baseE.exit

_ZN7datalog19sparse_table_plugin3getEPNS_10table_baseE.exit: ; preds = %entry, %dynamic_cast.notnull.i
  %3 = phi ptr [ %2, %dynamic_cast.notnull.i ], [ null, %entry ]
  %m_data = getelementptr inbounds i8, ptr %t, i64 72
  %m_data4 = getelementptr inbounds i8, ptr %3, i64 72
  %call5 = tail call noundef nonnull align 8 dereferenceable(88) ptr @_ZN7datalog13entry_storageaSERKS0_(ptr noundef nonnull align 8 dereferenceable(88) %m_data4, ptr noundef nonnull align 8 dereferenceable(88) %m_data)
  ret ptr %3
}